target datalayout = "e-m:e-p270:32:32-p271:32:32-p272:64:64-i64:64-i128:128-f80:128-n8:16:32:64-S128"
target triple = "x86_64-unknown-linux-gnu"

%class.scoped_ptr_vector = type { %class.ptr_vector }
%class.ptr_vector = type { %class.vector }
%class.vector = type { ptr }
%"class.euf::extract_eq" = type { ptr }
%"class.euf::basic_extract_eq" = type <{ %"class.euf::extract_eq", ptr, i8, i8, [6 x i8] }>

; Function Attrs: mustprogress nounwind uwtable
define linkonce_odr hidden void @_ZN3euf10extract_eqC2Ev(ptr noundef nonnull align 8 dereferenceable(8) %this) unnamed_addr #5 comdat align 2 {
entry:
  %this.addr = alloca ptr, align 8
  store ptr %this, ptr %this.addr, align 8
  %this1 = load ptr, ptr %this.addr, align 8
  store ptr getelementptr inbounds ({ [8 x ptr] }, ptr @_ZTVN3euf10extract_eqE, i32 0, i32 0, i32 2), ptr %this1, align 8
  ret void
}

; Function Attrs: mustprogress uwtable
define linkonce_odr hidden noundef nonnull align 8 dereferenceable(8) ptr @_ZN6vectorIPN3euf10extract_eqELb0EjE9push_backERKS2_(ptr noundef nonnull align 8 dereferenceable(8) %this, ptr noundef nonnull align 8 dereferenceable(8) %elem) #4 comdat align 2 {
entry:
  %this.addr = alloca ptr, align 8
  %elem.addr = alloca ptr, align 8
  store ptr %this, ptr %this.addr, align 8
  store ptr %elem, ptr %elem.addr, align 8
  %this1 = load ptr, ptr %this.addr, align 8
  %m_data = getelementptr inbounds %class.vector, ptr %this1, i32 0, i32 0
  %0 = load ptr, ptr %m_data, align 8
  %cmp = icmp eq ptr %0, null
  br i1 %cmp, label %if.then, label %lor.lhs.false

lor.lhs.false:                                    ; preds = %entry
  %m_data2 = getelementptr inbounds %class.vector, ptr %this1, i32 0, i32 0
  %1 = load ptr, ptr %m_data2, align 8
  %arrayidx = getelementptr inbounds i32, ptr %1, i64 -1
  %2 = load i32, ptr %arrayidx, align 4
  %m_data3 = getelementptr inbounds %class.vector, ptr %this1, i32 0, i32 0
  %3 = load ptr, ptr %m_data3, align 8
  %arrayidx4 = getelementptr inbounds i32, ptr %3, i64 -2
  %4 = load i32, ptr %arrayidx4, align 4
  %cmp5 = icmp eq i32 %2, %4
  br i1 %cmp5, label %if.then, label %if.end

if.then:                                          ; preds = %lor.lhs.false, %entry
  call void @_ZN6vectorIPN3euf10extract_eqELb0EjE13expand_vectorEv(ptr noundef nonnull align 8 dereferenceable(8) %this1)
  br label %if.end

if.end:                                           ; preds = %if.then, %lor.lhs.false
  %m_data6 = getelementptr inbounds %class.vector, ptr %this1, i32 0, i32 0
  %5 = load ptr, ptr %m_data6, align 8
  %m_data7 = getelementptr inbounds %class.vector, ptr %this1, i32 0, i32 0
  %6 = load ptr, ptr %m_data7, align 8
  %arrayidx8 = getelementptr inbounds i32, ptr %6, i64 -1
  %7 = load i32, ptr %arrayidx8, align 4
  %idx.ext = zext i32 %7 to i64
  %add.ptr = getelementptr inbounds ptr, ptr %5, i64 %idx.ext
  %8 = load ptr, ptr %elem.addr, align 8
  %9 = load ptr, ptr %8, align 8
  store ptr %9, ptr %add.ptr, align 8
  %m_data9 = getelementptr inbounds %class.vector, ptr %this1, i32 0, i32 0
  %10 = load ptr, ptr %m_data9, align 8
  %arrayidx10 = getelementptr inbounds i32, ptr %10, i64 -1
  %11 = load i32, ptr %arrayidx10, align 4
  %inc = add i32 %11, 1
  store i32 %inc, ptr %arrayidx10, align 4
  ret ptr %this1
}

; Function Attrs: mustprogress nounwind uwtable
define linkonce_odr hidden void @_ZN3euf16basic_extract_eqC2ER11ast_manager(ptr noundef nonnull align 8 dereferenceable(18) %this, ptr noundef nonnull align 8 dereferenceable(976) %m) unnamed_addr #5 comdat align 2 {
entry:
  %this.addr = alloca ptr, align 8
  %m.addr = alloca ptr, align 8
  store ptr %this, ptr %this.addr, align 8
  store ptr %m, ptr %m.addr, align 8
  %this1 = load ptr, ptr %this.addr, align 8
  call void @_ZN3euf10extract_eqC2Ev(ptr noundef nonnull align 8 dereferenceable(8) %this1) #3
  store ptr getelementptr inbounds ({ [8 x ptr] }, ptr @_ZTVN3euf16basic_extract_eqE, i32 0, i32 0, i32 2), ptr %this1, align 8
  %m2 = getelementptr inbounds %"class.euf::basic_extract_eq", ptr %this1, i32 0, i32 1
  %0 = load ptr, ptr %m.addr, align 8
  store ptr %0, ptr %m2, align 8
  %m_ite_solver = getelementptr inbounds %"class.euf::basic_extract_eq", ptr %this1, i32 0, i32 2
  store i8 1, ptr %m_ite_solver, align 8
  %m_allow_bool = getelementptr inbounds %"class.euf::basic_extract_eq", ptr %this1, i32 0, i32 3
  store i8 1, ptr %m_allow_bool, align 1
  ret void
}

; Function Attrs: mustprogress uwtable
define linkonce_odr hidden void @_ZN17scoped_ptr_vectorIN3euf10extract_eqEE9push_backEPS1_(ptr noundef nonnull align 8 dereferenceable(8) %this, ptr noundef %ptr) #4 comdat align 2 {
entry:
  %this.addr = alloca ptr, align 8
  %ptr.addr = alloca ptr, align 8
  store ptr %this, ptr %this.addr, align 8
  store ptr %ptr, ptr %ptr.addr, align 8
  %this1 = load ptr, ptr %this.addr, align 8
  %m_vector = getelementptr inbounds %class.scoped_ptr_vector, ptr %this1, i32 0, i32 0
  %call = call noundef nonnull align 8 dereferenceable(8) ptr @_ZN6vectorIPN3euf10extract_eqELb0EjE9push_backERKS2_(ptr noundef nonnull align 8 dereferenceable(8) %m_vector, ptr noundef nonnull align 8 dereferenceable(8) %ptr.addr)
  ret void
}

; Function Attrs: mustprogress uwtable
define hidden void @_ZN3euf20register_extract_eqsER11ast_managerR17scoped_ptr_vectorINS_10extract_eqEE(ptr noundef nonnull align 8 dereferenceable(976) %m, ptr noundef nonnull align 8 dereferenceable(8) %ex) #4 {
entry:
  %m.addr = alloca ptr, align 8
  %ex.addr = alloca ptr, align 8
  store ptr %m, ptr %m.addr, align 8
  store ptr %ex, ptr %ex.addr, align 8
  %0 = load ptr, ptr %ex.addr, align 8
  %call = call noalias noundef ptr @_ZN6memory8allocateEm(i64 noundef 224)
  %1 = load ptr, ptr %m.addr, align 8
  call void @_ZN3euf16arith_extract_eqC2ER11ast_manager(ptr noundef nonnull align 8 dereferenceable(218) %call, ptr noundef nonnull align 8 dereferenceable(976) %1)
  call void @_ZN17scoped_ptr_vectorIN3euf10extract_eqEE9push_backEPS1_(ptr noundef nonnull align 8 dereferenceable(8) %0, ptr noundef %call)
  %2 = load ptr, ptr %ex.addr, align 8
  %call1 = call noalias noundef ptr @_ZN6memory8allocateEm(i64 noundef 24)
  %3 = load ptr, ptr %m.addr, align 8
  call void @_ZN3euf16basic_extract_eqC2ER11ast_manager(ptr noundef nonnull align 8 dereferenceable(18) %call1, ptr noundef nonnull align 8 dereferenceable(976) %3)
  call void @_ZN17scoped_ptr_vectorIN3euf10extract_eqEE9push_backEPS1_(ptr noundef nonnull align 8 dereferenceable(8) %2, ptr noundef %call1)
  ret void
}