; Function Attrs: mustprogress uwtable
define hidden void @_ZN3euf20register_extract_eqsER11ast_managerR17scoped_ptr_vectorINS_10extract_eqEE(ptr noundef nonnull align 8 dereferenceable(976) %m, ptr noundef nonnull align 8 dereferenceable(8) %ex) local_unnamed_addr #3 {
entry:
  %call = tail call noalias noundef ptr @_ZN6memory8allocateEm(i64 noundef 224)
  tail call void @_ZN3euf16arith_extract_eqC2ER11ast_manager(ptr noundef nonnull align 8 dereferenceable(218) %call, ptr noundef nonnull align 8 dereferenceable(976) %m)
  %0 = load ptr, ptr %ex, align 8
  %cmp.i.i = icmp eq ptr %0, null
  br i1 %cmp.i.i, label %if.then.i.i, label %lor.lhs.false.i.i

lor.lhs.false.i.i:                                ; preds = %entry
  %arrayidx.i.i = getelementptr inbounds i8, ptr %0, i64 -4
  %1 = load i32, ptr %arrayidx.i.i, align 4
  %arrayidx4.i.i = getelementptr inbounds i8, ptr %0, i64 -8
  %2 = load i32, ptr %arrayidx4.i.i, align 4
  %cmp5.i.i = icmp eq i32 %1, %2
  br i1 %cmp5.i.i, label %if.then.i.i, label %_ZN17scoped_ptr_vectorIN3euf10extract_eqEE9push_backEPS1_.exit

if.then.i.i:                                      ; preds = %lor.lhs.false.i.i, %entry
  tail call void @_ZN6vectorIPN3euf10extract_eqELb0EjE13expand_vectorEv(ptr noundef nonnull align 8 dereferenceable(8) %ex)
  %.pre.i.i = load ptr, ptr %ex, align 8
  %arrayidx8.phi.trans.insert.i.i = getelementptr inbounds i8, ptr %.pre.i.i, i64 -4
  %.pre1.i.i = load i32, ptr %arrayidx8.phi.trans.insert.i.i, align 4
  br label %_ZN17scoped_ptr_vectorIN3euf10extract_eqEE9push_backEPS1_.exit

_ZN17scoped_ptr_vectorIN3euf10extract_eqEE9push_backEPS1_.exit: ; preds = %lor.lhs.false.i.i, %if.then.i.i
  %3 = phi i32 [ %.pre1.i.i, %if.then.i.i ], [ %1, %lor.lhs.false.i.i ]
  %4 = phi ptr [ %.pre.i.i, %if.then.i.i ], [ %0, %lor.lhs.false.i.i ]
  %idx.ext.i.i = zext i32 %3 to i64
  %add.ptr.i.i = getelementptr inbounds ptr, ptr %4, i64 %idx.ext.i.i
  store ptr %call, ptr %add.ptr.i.i, align 8
  %5 = load ptr, ptr %ex, align 8
  %arrayidx10.i.i = getelementptr inbounds i8, ptr %5, i64 -4
  %6 = load i32, ptr %arrayidx10.i.i, align 4
  %inc.i.i = add i32 %6, 1
  store i32 %inc.i.i, ptr %arrayidx10.i.i, align 4
  %call1 = tail call noalias noundef ptr @_ZN6memory8allocateEm(i64 noundef 24)
  store ptr getelementptr inbounds ({ [8 x ptr] }, ptr @_ZTVN3euf16basic_extract_eqE, i64 0, i32 0, i64 2), ptr %call1, align 8
  %m2.i = getelementptr inbounds i8, ptr %call1, i64 8
  store ptr %m, ptr %m2.i, align 8
  %m_ite_solver.i = getelementptr inbounds i8, ptr %call1, i64 16
  store i8 1, ptr %m_ite_solver.i, align 8
  %m_allow_bool.i = getelementptr inbounds i8, ptr %call1, i64 17
  store i8 1, ptr %m_allow_bool.i, align 1
  %7 = load ptr, ptr %ex, align 8
  %cmp.i.i3 = icmp eq ptr %7, null
  br i1 %cmp.i.i3, label %if.then.i.i12, label %lor.lhs.false.i.i4

lor.lhs.false.i.i4:                               ; preds = %_ZN17scoped_ptr_vectorIN3euf10extract_eqEE9push_backEPS1_.exit
  %arrayidx.i.i5 = getelementptr inbounds i8, ptr %7, i64 -4
  %8 = load i32, ptr %arrayidx.i.i5, align 4
  %arrayidx4.i.i6 = getelementptr inbounds i8, ptr %7, i64 -8
  %9 = load i32, ptr %arrayidx4.i.i6, align 4
  %cmp5.i.i7 = icmp eq i32 %8, %9
  br i1 %cmp5.i.i7, label %if.then.i.i12, label %_ZN17scoped_ptr_vectorIN3euf10extract_eqEE9push_backEPS1_.exit16

if.then.i.i12:                                    ; preds = %lor.lhs.false.i.i4, %_ZN17scoped_ptr_vectorIN3euf10extract_eqEE9push_backEPS1_.exit
  tail call void @_ZN6vectorIPN3euf10extract_eqELb0EjE13expand_vectorEv(ptr noundef nonnull align 8 dereferenceable(8) %ex)
  %.pre.i.i13 = load ptr, ptr %ex, align 8
  %arrayidx8.phi.trans.insert.i.i14 = getelementptr inbounds i8, ptr %.pre.i.i13, i64 -4
  %.pre1.i.i15 = load i32, ptr %arrayidx8.phi.trans.insert.i.i14, align 4
  br label %_ZN17scoped_ptr_vectorIN3euf10extract_eqEE9push_backEPS1_.exit16

_ZN17scoped_ptr_vectorIN3euf10extract_eqEE9push_backEPS1_.exit16: ; preds = %lor.lhs.false.i.i4, %if.then.i.i12
  %10 = phi i32 [ %.pre1.i.i15, %if.then.i.i12 ], [ %8, %lor.lhs.false.i.i4 ]
  %11 = phi ptr [ %.pre.i.i13, %if.then.i.i12 ], [ %7, %lor.lhs.false.i.i4 ]
  %idx.ext.i.i8 = zext i32 %10 to i64
  %add.ptr.i.i9 = getelementptr inbounds ptr, ptr %11, i64 %idx.ext.i.i8
  store ptr %call1, ptr %add.ptr.i.i9, align 8
  %12 = load ptr, ptr %ex, align 8
  %arrayidx10.i.i10 = getelementptr inbounds i8, ptr %12, i64 -4
  %13 = load i32, ptr %arrayidx10.i.i10, align 4
  %inc.i.i11 = add i32 %13, 1
  store i32 %inc.i.i11, ptr %arrayidx10.i.i10, align 4
  ret void
}